; Function Attrs: mustprogress nofree norecurse nosync nounwind willreturn memory(argmem: write) uwtable
define void @_ZN32pxrInternal_v0_24__pxrReserved__17CameraUtilFramingC2Ev(ptr nocapture noundef nonnull writeonly align 4 dereferenceable(36) %0) unnamed_addr #0 align 2 {
  %2 = getelementptr inbounds i8, ptr %0, i64 4
  store float 0x47EFFFFFE0000000, ptr %2, align 4
  store float 0x47EFFFFFE0000000, ptr %0, align 4
  %3 = getelementptr inbounds nuw i8, ptr %0, i64 8
  %4 = getelementptr inbounds i8, ptr %0, i64 12
  store float 0xC7EFFFFFE0000000, ptr %4, align 4
  store float 0xC7EFFFFFE0000000, ptr %3, align 4
  %5 = getelementptr inbounds nuw i8, ptr %0, i64 16
  store i32 0, ptr %5, align 4
  %6 = getelementptr inbounds i8, ptr %0, i64 20
  store i32 0, ptr %6, align 4
  %7 = getelementptr inbounds i8, ptr %0, i64 24
  store i32 -1, ptr %7, align 4
  %8 = getelementptr inbounds i8, ptr %0, i64 28
  store i32 -1, ptr %8, align 4
  %9 = getelementptr inbounds nuw i8, ptr %0, i64 32
  store float 1.000000e+00, ptr %9, align 4
  ret void
}